; Function Attrs: mustprogress nounwind uwtable
define dso_local void @_ZNK4llvm5APInt11zextOrTruncEj(ptr dead_on_unwind noalias writable writeonly sret(%"class.llvm::APInt") align 8 captures(none) initializes((0, 12)) %0, ptr noundef nonnull readonly align 8 captures(none) dereferenceable(12) %1, i32 noundef %2) local_unnamed_addr #0 align 2 {
  %4 = getelementptr inbounds nuw i8, ptr %1, i64 8
  %5 = load i32, ptr %4, align 8
  %6 = icmp ult i32 %5, %2
  br i1 %6, label %7, label %34

7:                                                ; preds = %3
  tail call void @llvm.experimental.noalias.scope.decl(metadata !90)
  %8 = icmp ult i32 %2, 65
  br i1 %8, label %_ZN4llvm5APIntC2Ejmbb.exit.i, label %17

_ZN4llvm5APIntC2Ejmbb.exit.i:                     ; preds = %7
  %9 = load i64, ptr %1, align 8, !noalias !90
  %10 = getelementptr inbounds nuw i8, ptr %0, i64 8
  store i32 %2, ptr %10, align 8, !alias.scope !90
  %11 = add nuw nsw i32 %2, 63
  %12 = and i32 %11, 63
  %13 = xor i32 %12, 63
  %14 = zext nneg i32 %13 to i64
  %15 = lshr i64 -1, %14
  %16 = and i64 %9, %15
  store i64 %16, ptr %0, align 8, !alias.scope !90
  br label %_ZNK4llvm5APInt4zextEj.exit

17:                                               ; preds = %7
  %18 = zext i32 %2 to i64
  %19 = add nuw nsw i64 %18, 63
  %20 = lshr i64 %19, 6
  %21 = shl nuw nsw i64 %20, 3
  %22 = tail call noalias noundef nonnull ptr @_Znam(i64 noundef %21) #21, !noalias !90
  %23 = getelementptr inbounds nuw i8, ptr %0, i64 8
  store i32 %2, ptr %23, align 8, !alias.scope !90
  store ptr %22, ptr %0, align 8, !alias.scope !90
  %24 = icmp ult i32 %5, 65
  %25 = load ptr, ptr %1, align 8, !noalias !90
  %.0.i.i = select i1 %24, ptr %1, ptr %25
  %26 = zext i32 %5 to i64
  %27 = add nuw nsw i64 %26, 63
  %28 = lshr i64 %27, 6
  %29 = shl nuw nsw i64 %28, 3
  tail call void @llvm.memcpy.p0.p0.i64(ptr nonnull align 8 %22, ptr align 8 %.0.i.i, i64 %29, i1 false), !noalias !90
  %30 = getelementptr inbounds nuw i64, ptr %22, i64 %28
  %31 = sub nsw i64 %20, %28
  %32 = shl nsw i64 %31, 3
  %33 = and i64 %32, 4294967288
  tail call void @llvm.memset.p0.i64(ptr nonnull align 8 %30, i8 0, i64 %33, i1 false), !noalias !90
  br label %_ZNK4llvm5APInt4zextEj.exit

34:                                               ; preds = %3
  %35 = icmp ugt i32 %5, %2
  br i1 %35, label %36, label %37

36:                                               ; preds = %34
  tail call void @_ZNK4llvm5APInt5truncEj(ptr dead_on_unwind writable sret(%"class.llvm::APInt") align 8 %0, ptr noundef nonnull align 8 dereferenceable(12) %1, i32 noundef %2)
  br label %_ZNK4llvm5APInt4zextEj.exit

37:                                               ; preds = %34
  %38 = getelementptr inbounds nuw i8, ptr %0, i64 8
  store i32 %5, ptr %38, align 8
  %39 = icmp ult i32 %5, 65
  br i1 %39, label %40, label %42

40:                                               ; preds = %37
  %41 = load i64, ptr %1, align 8
  store i64 %41, ptr %0, align 8
  br label %_ZNK4llvm5APInt4zextEj.exit

42:                                               ; preds = %37
  %43 = zext i32 %5 to i64
  %44 = add nuw nsw i64 %43, 63
  %45 = lshr i64 %44, 3
  %46 = and i64 %45, 1073741816
  %47 = tail call noalias noundef nonnull ptr @_Znam(i64 noundef %46) #21
  store ptr %47, ptr %0, align 8
  %48 = load ptr, ptr %1, align 8
  tail call void @llvm.memcpy.p0.p0.i64(ptr nonnull align 8 %47, ptr align 8 %48, i64 %46, i1 false)
  br label %_ZNK4llvm5APInt4zextEj.exit

_ZNK4llvm5APInt4zextEj.exit:                      ; preds = %42, %40, %17, %_ZN4llvm5APIntC2Ejmbb.exit.i, %36
  ret void
}